target datalayout = "e-m:e-p270:32:32-p271:32:32-p272:64:64-i64:64-i128:128-f80:128-n8:16:32:64-S128"
target triple = "x86_64-pc-linux-gnu"

%struct.SN_env = type { ptr, i32, i32, i32, i32, i32, ptr, ptr }

@s_58 = internal constant [4 x i8] c"\CE\B1\CE\BA", align 1
@s_59 = internal constant [6 x i8] c"\CE\B9\CF\84\CF\83", align 1
@s_60 = internal constant [6 x i8] c"\CE\BA\CE\BF\CF\81", align 1
@s_61 = internal constant [6 x i8] c"\CE\B9\CF\84\CF\83", align 1

; Function Attrs: nounwind uwtable
define internal i32 @r_steps8(ptr noundef %0) #0 {
  %2 = alloca i32, align 4
  %3 = alloca ptr, align 8
  %4 = alloca i32, align 4
  %5 = alloca i32, align 4
  %6 = alloca i32, align 4
  %7 = alloca i32, align 4
  %8 = alloca i32, align 4
  %9 = alloca i32, align 4
  %10 = alloca i32, align 4
  store ptr %0, ptr %3, align 8
  call void @llvm.lifetime.start.p0(i64 4, ptr %4) #3
  %11 = load ptr, ptr %3, align 8
  %12 = getelementptr inbounds nuw %struct.SN_env, ptr %11, i32 0, i32 1
  %13 = load i32, ptr %12, align 8
  %14 = load ptr, ptr %3, align 8
  %15 = getelementptr inbounds nuw %struct.SN_env, ptr %14, i32 0, i32 5
  store i32 %13, ptr %15, align 8
  %16 = load ptr, ptr %3, align 8
  %17 = call i32 @find_among_b(ptr noundef %16, ptr noundef @a_18, i32 noundef 8)
  %18 = icmp ne i32 %17, 0
  br i1 %18, label %20, label %19

19:                                               ; preds = %1
  store i32 0, ptr %2, align 4
  store i32 1, ptr %5, align 4
  br label %133

20:                                               ; preds = %1
  %21 = load ptr, ptr %3, align 8
  %22 = getelementptr inbounds nuw %struct.SN_env, ptr %21, i32 0, i32 1
  %23 = load i32, ptr %22, align 8
  %24 = load ptr, ptr %3, align 8
  %25 = getelementptr inbounds nuw %struct.SN_env, ptr %24, i32 0, i32 4
  store i32 %23, ptr %25, align 4
  call void @llvm.lifetime.start.p0(i64 4, ptr %6) #3
  %26 = load ptr, ptr %3, align 8
  %27 = call i32 @slice_del(ptr noundef %26)
  store i32 %27, ptr %6, align 4
  %28 = load i32, ptr %6, align 4
  %29 = icmp slt i32 %28, 0
  br i1 %29, label %30, label %32

30:                                               ; preds = %20
  %31 = load i32, ptr %6, align 4
  store i32 %31, ptr %2, align 4
  store i32 1, ptr %5, align 4
  br label %33

32:                                               ; preds = %20
  store i32 0, ptr %5, align 4
  br label %33

33:                                               ; preds = %32, %30
  call void @llvm.lifetime.end.p0(i64 4, ptr %6) #3
  %34 = load i32, ptr %5, align 4
  switch i32 %34, label %133 [
    i32 0, label %35
  ]

35:                                               ; preds = %33
  %36 = load ptr, ptr %3, align 8
  %37 = getelementptr inbounds nuw %struct.SN_env, ptr %36, i32 0, i32 7
  %38 = load ptr, ptr %37, align 8
  %39 = getelementptr inbounds i32, ptr %38, i64 0
  store i32 0, ptr %39, align 4
  call void @llvm.lifetime.start.p0(i64 4, ptr %7) #3
  %40 = load ptr, ptr %3, align 8
  %41 = getelementptr inbounds nuw %struct.SN_env, ptr %40, i32 0, i32 2
  %42 = load i32, ptr %41, align 4
  %43 = load ptr, ptr %3, align 8
  %44 = getelementptr inbounds nuw %struct.SN_env, ptr %43, i32 0, i32 1
  %45 = load i32, ptr %44, align 8
  %46 = sub i32 %42, %45
  store i32 %46, ptr %7, align 4
  %47 = load ptr, ptr %3, align 8
  %48 = getelementptr inbounds nuw %struct.SN_env, ptr %47, i32 0, i32 1
  %49 = load i32, ptr %48, align 8
  %50 = load ptr, ptr %3, align 8
  %51 = getelementptr inbounds nuw %struct.SN_env, ptr %50, i32 0, i32 5
  store i32 %49, ptr %51, align 8
  %52 = load ptr, ptr %3, align 8
  %53 = getelementptr inbounds nuw %struct.SN_env, ptr %52, i32 0, i32 1
  %54 = load i32, ptr %53, align 8
  %55 = load ptr, ptr %3, align 8
  %56 = getelementptr inbounds nuw %struct.SN_env, ptr %55, i32 0, i32 4
  store i32 %54, ptr %56, align 4
  %57 = load ptr, ptr %3, align 8
  %58 = call i32 @find_among_b(ptr noundef %57, ptr noundef @a_17, i32 noundef 46)
  store i32 %58, ptr %4, align 4
  %59 = load i32, ptr %4, align 4
  %60 = icmp ne i32 %59, 0
  br i1 %60, label %62, label %61

61:                                               ; preds = %35
  br label %96

62:                                               ; preds = %35
  %63 = load ptr, ptr %3, align 8
  %64 = getelementptr inbounds nuw %struct.SN_env, ptr %63, i32 0, i32 1
  %65 = load i32, ptr %64, align 8
  %66 = load ptr, ptr %3, align 8
  %67 = getelementptr inbounds nuw %struct.SN_env, ptr %66, i32 0, i32 3
  %68 = load i32, ptr %67, align 8
  %69 = icmp sgt i32 %65, %68
  br i1 %69, label %70, label %71

70:                                               ; preds = %62
  br label %96

71:                                               ; preds = %62
  %72 = load i32, ptr %4, align 4
  switch i32 %72, label %95 [
    i32 1, label %73
    i32 2, label %84
  ]

73:                                               ; preds = %71
  call void @llvm.lifetime.start.p0(i64 4, ptr %8) #3
  %74 = load ptr, ptr %3, align 8
  %75 = call i32 @slice_from_s(ptr noundef %74, i32 noundef 4, ptr noundef @s_58)
  store i32 %75, ptr %8, align 4
  %76 = load i32, ptr %8, align 4
  %77 = icmp slt i32 %76, 0
  br i1 %77, label %78, label %80

78:                                               ; preds = %73
  %79 = load i32, ptr %8, align 4
  store i32 %79, ptr %2, align 4
  store i32 1, ptr %5, align 4
  br label %81

80:                                               ; preds = %73
  store i32 0, ptr %5, align 4
  br label %81

81:                                               ; preds = %80, %78
  call void @llvm.lifetime.end.p0(i64 4, ptr %8) #3
  %82 = load i32, ptr %5, align 4
  switch i32 %82, label %129 [
    i32 0, label %83
  ]

83:                                               ; preds = %81
  br label %95

84:                                               ; preds = %71
  call void @llvm.lifetime.start.p0(i64 4, ptr %9) #3
  %85 = load ptr, ptr %3, align 8
  %86 = call i32 @slice_from_s(ptr noundef %85, i32 noundef 6, ptr noundef @s_59)
  store i32 %86, ptr %9, align 4
  %87 = load i32, ptr %9, align 4
  %88 = icmp slt i32 %87, 0
  br i1 %88, label %89, label %91

89:                                               ; preds = %84
  %90 = load i32, ptr %9, align 4
  store i32 %90, ptr %2, align 4
  store i32 1, ptr %5, align 4
  br label %92

91:                                               ; preds = %84
  store i32 0, ptr %5, align 4
  br label %92

92:                                               ; preds = %91, %89
  call void @llvm.lifetime.end.p0(i64 4, ptr %9) #3
  %93 = load i32, ptr %5, align 4
  switch i32 %93, label %129 [
    i32 0, label %94
  ]

94:                                               ; preds = %92
  br label %95

95:                                               ; preds = %71, %94, %83
  store i32 4, ptr %5, align 4
  br label %129

96:                                               ; preds = %70, %61
  %97 = load ptr, ptr %3, align 8
  %98 = getelementptr inbounds nuw %struct.SN_env, ptr %97, i32 0, i32 2
  %99 = load i32, ptr %98, align 4
  %100 = load i32, ptr %7, align 4
  %101 = sub i32 %99, %100
  %102 = load ptr, ptr %3, align 8
  %103 = getelementptr inbounds nuw %struct.SN_env, ptr %102, i32 0, i32 1
  store i32 %101, ptr %103, align 8
  %104 = load ptr, ptr %3, align 8
  %105 = getelementptr inbounds nuw %struct.SN_env, ptr %104, i32 0, i32 1
  %106 = load i32, ptr %105, align 8
  %107 = load ptr, ptr %3, align 8
  %108 = getelementptr inbounds nuw %struct.SN_env, ptr %107, i32 0, i32 5
  store i32 %106, ptr %108, align 8
  %109 = load ptr, ptr %3, align 8
  %110 = getelementptr inbounds nuw %struct.SN_env, ptr %109, i32 0, i32 1
  %111 = load i32, ptr %110, align 8
  %112 = load ptr, ptr %3, align 8
  %113 = getelementptr inbounds nuw %struct.SN_env, ptr %112, i32 0, i32 4
  store i32 %111, ptr %113, align 4
  %114 = load ptr, ptr %3, align 8
  %115 = call i32 @eq_s_b(ptr noundef %114, i32 noundef 6, ptr noundef @s_60)
  %116 = icmp ne i32 %115, 0
  br i1 %116, label %118, label %117

117:                                              ; preds = %96
  store i32 0, ptr %2, align 4
  store i32 1, ptr %5, align 4
  br label %129

118:                                              ; preds = %96
  call void @llvm.lifetime.start.p0(i64 4, ptr %10) #3
  %119 = load ptr, ptr %3, align 8
  %120 = call i32 @slice_from_s(ptr noundef %119, i32 noundef 6, ptr noundef @s_61)
  store i32 %120, ptr %10, align 4
  %121 = load i32, ptr %10, align 4
  %122 = icmp slt i32 %121, 0
  br i1 %122, label %123, label %125

123:                                              ; preds = %118
  %124 = load i32, ptr %10, align 4
  store i32 %124, ptr %2, align 4
  store i32 1, ptr %5, align 4
  br label %126

125:                                              ; preds = %118
  store i32 0, ptr %5, align 4
  br label %126

126:                                              ; preds = %125, %123
  call void @llvm.lifetime.end.p0(i64 4, ptr %10) #3
  %127 = load i32, ptr %5, align 4
  switch i32 %127, label %129 [
    i32 0, label %128
  ]

128:                                              ; preds = %126
  store i32 0, ptr %5, align 4
  br label %129

129:                                              ; preds = %95, %128, %126, %117, %92, %81
  call void @llvm.lifetime.end.p0(i64 4, ptr %7) #3
  %130 = load i32, ptr %5, align 4
  switch i32 %130, label %133 [
    i32 0, label %131
    i32 4, label %132
  ]

131:                                              ; preds = %129
  br label %132

132:                                              ; preds = %131, %129
  store i32 1, ptr %2, align 4
  store i32 1, ptr %5, align 4
  br label %133

133:                                              ; preds = %132, %129, %33, %19
  call void @llvm.lifetime.end.p0(i64 4, ptr %4) #3
  %134 = load i32, ptr %2, align 4
  ret i32 %134
}