; Function Attrs: nounwind uwtable
define internal fastcc range(i32 -2147483648, 2) i32 @r_steps8(ptr noundef initializes((24, 28)) %0) unnamed_addr #0 {
  %2 = getelementptr inbounds nuw i8, ptr %0, i64 8
  %3 = load i32, ptr %2, align 8
  %4 = getelementptr inbounds nuw i8, ptr %0, i64 24
  store i32 %3, ptr %4, align 8
  %5 = tail call i32 @find_among_b(ptr noundef %0, ptr noundef nonnull @a_18, i32 noundef 8) #2
  %.not = icmp eq i32 %5, 0
  br i1 %.not, label %37, label %6

6:                                                ; preds = %1
  %7 = load i32, ptr %2, align 8
  %8 = getelementptr inbounds nuw i8, ptr %0, i64 20
  store i32 %7, ptr %8, align 4
  %9 = tail call i32 @slice_del(ptr noundef nonnull %0) #2
  %10 = icmp sgt i32 %9, -1
  br i1 %10, label %11, label %37

11:                                               ; preds = %6
  %12 = getelementptr inbounds nuw i8, ptr %0, i64 40
  %13 = load ptr, ptr %12, align 8
  store i32 0, ptr %13, align 4
  %14 = getelementptr inbounds nuw i8, ptr %0, i64 12
  %15 = load i32, ptr %14, align 4
  %16 = load i32, ptr %2, align 8
  %.neg = sub i32 %16, %15
  store i32 %16, ptr %4, align 8
  store i32 %16, ptr %8, align 4
  %17 = tail call i32 @find_among_b(ptr noundef nonnull %0, ptr noundef nonnull @a_17, i32 noundef 46) #2
  %.not54 = icmp eq i32 %17, 0
  br i1 %.not54, label %30, label %18

18:                                               ; preds = %11
  %19 = load i32, ptr %2, align 8
  %20 = getelementptr inbounds nuw i8, ptr %0, i64 16
  %21 = load i32, ptr %20, align 8
  %22 = icmp sgt i32 %19, %21
  br i1 %22, label %30, label %23

23:                                               ; preds = %18
  switch i32 %17, label %37 [
    i32 1, label %24
    i32 2, label %27
  ]

24:                                               ; preds = %23
  %25 = tail call i32 @slice_from_s(ptr noundef nonnull %0, i32 noundef 4, ptr noundef nonnull @s_58) #2
  %26 = icmp sgt i32 %25, -1
  br i1 %26, label %37, label %.thread

27:                                               ; preds = %23
  %28 = tail call i32 @slice_from_s(ptr noundef nonnull %0, i32 noundef 6, ptr noundef nonnull @s_59) #2
  %29 = icmp sgt i32 %28, -1
  br i1 %29, label %37, label %.thread

30:                                               ; preds = %18, %11
  %31 = load i32, ptr %14, align 4
  %32 = add i32 %31, %.neg
  store i32 %32, ptr %2, align 8
  store i32 %32, ptr %4, align 8
  store i32 %32, ptr %8, align 4
  %33 = tail call i32 @eq_s_b(ptr noundef nonnull %0, i32 noundef 6, ptr noundef nonnull @s_60) #2
  %.not55 = icmp eq i32 %33, 0
  br i1 %.not55, label %.thread, label %34

34:                                               ; preds = %30
  %35 = tail call i32 @slice_from_s(ptr noundef nonnull %0, i32 noundef 6, ptr noundef nonnull @s_61) #2
  %36 = icmp slt i32 %35, 0
  br i1 %36, label %.thread, label %37

.thread:                                          ; preds = %27, %24, %30, %34
  %.4.ph = phi i32 [ 0, %30 ], [ %25, %24 ], [ %28, %27 ], [ %35, %34 ]
  br label %37

37:                                               ; preds = %23, %24, %27, %34, %.thread, %1, %6
  %.0 = phi i32 [ %9, %6 ], [ 0, %1 ], [ %.4.ph, %.thread ], [ 1, %34 ], [ 1, %27 ], [ 1, %24 ], [ 1, %23 ]
  ret i32 %.0
}